target datalayout = "e-m:e-p270:32:32-p271:32:32-p272:64:64-i64:64-i128:128-f80:128-n8:16:32:64-S128"
target triple = "x86_64-pc-linux-gnu"

%"class.cv::epnp" = type { double, double, double, double, %"class.std::vector", %"class.std::vector", %"class.std::vector", %"class.std::vector", i32, [4 x [3 x double]], [4 x [3 x double]], i32, ptr, ptr }
%"class.std::vector" = type { %"struct.std::_Vector_base" }
%"struct.std::_Vector_base" = type { %"struct.std::_Vector_base<double, std::allocator<double>>::_Vector_impl" }
%"struct.std::_Vector_base<double, std::allocator<double>>::_Vector_impl" = type { %"struct.std::_Vector_base<double, std::allocator<double>>::_Vector_impl_data" }
%"struct.std::_Vector_base<double, std::allocator<double>>::_Vector_impl_data" = type { ptr, ptr, ptr }
%struct.CvMat = type { i32, i32, ptr, i32, %union.anon, %union.anon.0, %union.anon.1 }
%union.anon = type { ptr }
%union.anon.0 = type { i32 }
%union.anon.1 = type { i32 }

; Function Attrs: mustprogress nounwind uwtable
define linkonce_odr hidden noundef nonnull align 8 dereferenceable(8) ptr @_ZNSt6vectorIdSaIdEEixEm(ptr noundef nonnull align 8 dereferenceable(24) %0, i64 noundef %1) #5 comdat align 2 {
  %3 = alloca ptr, align 8
  %4 = alloca i64, align 8
  store ptr %0, ptr %3, align 8, !tbaa !23
  store i64 %1, ptr %4, align 8, !tbaa !42
  %5 = load ptr, ptr %3, align 8
  %6 = getelementptr inbounds nuw %"struct.std::_Vector_base", ptr %5, i32 0, i32 0
  %7 = getelementptr inbounds nuw %"struct.std::_Vector_base<double, std::allocator<double>>::_Vector_impl_data", ptr %6, i32 0, i32 0
  %8 = load ptr, ptr %7, align 8, !tbaa !44
  %9 = load i64, ptr %4, align 8, !tbaa !42
  %10 = getelementptr inbounds nuw double, ptr %8, i64 %9
  ret ptr %10
}

; Function Attrs: inlinehint mustprogress nounwind uwtable
define internal void @_ZL5cvMatiiiPv(ptr dead_on_unwind noalias writable sret(%struct.CvMat) align 8 %0, i32 noundef %1, i32 noundef %2, i32 noundef %3, ptr noundef %4) #6 {
  %6 = alloca i32, align 4
  %7 = alloca i32, align 4
  %8 = alloca i32, align 4
  %9 = alloca ptr, align 8
  store i32 %1, ptr %6, align 4, !tbaa !10
  store i32 %2, ptr %7, align 4, !tbaa !10
  store i32 %3, ptr %8, align 4, !tbaa !10
  store ptr %4, ptr %9, align 8, !tbaa !75
  %10 = load i32, ptr %8, align 4, !tbaa !10
  %11 = and i32 %10, 4095
  store i32 %11, ptr %8, align 4, !tbaa !10
  %12 = load i32, ptr %8, align 4, !tbaa !10
  %13 = or i32 1111638016, %12
  %14 = getelementptr inbounds nuw %struct.CvMat, ptr %0, i32 0, i32 0
  store i32 %13, ptr %14, align 8, !tbaa !76
  %15 = load i32, ptr %7, align 4, !tbaa !10
  %16 = getelementptr inbounds nuw %struct.CvMat, ptr %0, i32 0, i32 6
  store i32 %15, ptr %16, align 4, !tbaa !70
  %17 = load i32, ptr %6, align 4, !tbaa !10
  %18 = getelementptr inbounds nuw %struct.CvMat, ptr %0, i32 0, i32 5
  store i32 %17, ptr %18, align 8, !tbaa !70
  %19 = getelementptr inbounds nuw %struct.CvMat, ptr %0, i32 0, i32 6
  %20 = load i32, ptr %19, align 4, !tbaa !70
  %21 = load i32, ptr %8, align 4, !tbaa !10
  %22 = and i32 %21, 4088
  %23 = ashr i32 %22, 3
  %24 = add nsw i32 %23, 1
  %25 = load i32, ptr %8, align 4, !tbaa !10
  %26 = and i32 %25, 7
  %27 = mul nsw i32 %26, 4
  %28 = ashr i32 675553809, %27
  %29 = and i32 %28, 15
  %30 = mul nsw i32 %24, %29
  %31 = mul nsw i32 %20, %30
  %32 = getelementptr inbounds nuw %struct.CvMat, ptr %0, i32 0, i32 1
  store i32 %31, ptr %32, align 4, !tbaa !78
  %33 = load ptr, ptr %9, align 8, !tbaa !75
  %34 = getelementptr inbounds nuw %struct.CvMat, ptr %0, i32 0, i32 4
  store ptr %33, ptr %34, align 8, !tbaa !70
  %35 = getelementptr inbounds nuw %struct.CvMat, ptr %0, i32 0, i32 2
  store ptr null, ptr %35, align 8, !tbaa !79
  %36 = getelementptr inbounds nuw %struct.CvMat, ptr %0, i32 0, i32 3
  store i32 0, ptr %36, align 8, !tbaa !80
  ret void
}

; Function Attrs: mustprogress uwtable
define hidden void @_ZN2cv4epnp31compute_barycentric_coordinatesEv(ptr noundef nonnull align 8 dereferenceable(352) %0) #4 align 2 {
  %2 = alloca ptr, align 8
  %3 = alloca [9 x double], align 16
  %4 = alloca [9 x double], align 16
  %5 = alloca %struct.CvMat, align 8
  %6 = alloca %struct.CvMat, align 8
  %7 = alloca i32, align 4
  %8 = alloca i32, align 4
  %9 = alloca i32, align 4
  %10 = alloca ptr, align 8
  %11 = alloca i32, align 4
  %12 = alloca ptr, align 8
  %13 = alloca ptr, align 8
  %14 = alloca i32, align 4
  store ptr %0, ptr %2, align 8, !tbaa !3
  %15 = load ptr, ptr %2, align 8
  call void @llvm.lifetime.start.p0(i64 72, ptr %3) #3
  call void @llvm.memset.p0.i64(ptr align 16 %3, i8 0, i64 72, i1 false)
  call void @llvm.lifetime.start.p0(i64 72, ptr %4) #3
  call void @llvm.memset.p0.i64(ptr align 16 %4, i8 0, i64 72, i1 false)
  call void @llvm.lifetime.start.p0(i64 40, ptr %5) #3
  %16 = getelementptr inbounds [9 x double], ptr %3, i64 0, i64 0
  call void @_ZL5cvMatiiiPv(ptr dead_on_unwind writable sret(%struct.CvMat) align 8 %5, i32 noundef 3, i32 noundef 3, i32 noundef 6, ptr noundef %16)
  call void @llvm.lifetime.start.p0(i64 40, ptr %6) #3
  %17 = getelementptr inbounds [9 x double], ptr %4, i64 0, i64 0
  call void @_ZL5cvMatiiiPv(ptr dead_on_unwind writable sret(%struct.CvMat) align 8 %6, i32 noundef 3, i32 noundef 3, i32 noundef 6, ptr noundef %17)
  call void @llvm.lifetime.start.p0(i64 4, ptr %7) #3
  store i32 0, ptr %7, align 4, !tbaa !10
  br label %18

18:                                               ; preds = %54, %1
  %19 = load i32, ptr %7, align 4, !tbaa !10
  %20 = icmp slt i32 %19, 3
  br i1 %20, label %22, label %21

21:                                               ; preds = %18
  store i32 2, ptr %8, align 4
  call void @llvm.lifetime.end.p0(i64 4, ptr %7) #3
  br label %57

22:                                               ; preds = %18
  call void @llvm.lifetime.start.p0(i64 4, ptr %9) #3
  store i32 1, ptr %9, align 4, !tbaa !10
  br label %23

23:                                               ; preds = %50, %22
  %24 = load i32, ptr %9, align 4, !tbaa !10
  %25 = icmp slt i32 %24, 4
  br i1 %25, label %27, label %26

26:                                               ; preds = %23
  store i32 5, ptr %8, align 4
  call void @llvm.lifetime.end.p0(i64 4, ptr %9) #3
  br label %53

27:                                               ; preds = %23
  %28 = getelementptr inbounds nuw %"class.cv::epnp", ptr %15, i32 0, i32 9
  %29 = load i32, ptr %9, align 4, !tbaa !10
  %30 = sext i32 %29 to i64
  %31 = getelementptr inbounds [4 x [3 x double]], ptr %28, i64 0, i64 %30
  %32 = load i32, ptr %7, align 4, !tbaa !10
  %33 = sext i32 %32 to i64
  %34 = getelementptr inbounds [3 x double], ptr %31, i64 0, i64 %33
  %35 = load double, ptr %34, align 8, !tbaa !40
  %36 = getelementptr inbounds nuw %"class.cv::epnp", ptr %15, i32 0, i32 9
  %37 = getelementptr inbounds [4 x [3 x double]], ptr %36, i64 0, i64 0
  %38 = load i32, ptr %7, align 4, !tbaa !10
  %39 = sext i32 %38 to i64
  %40 = getelementptr inbounds [3 x double], ptr %37, i64 0, i64 %39
  %41 = load double, ptr %40, align 8, !tbaa !40
  %42 = fsub double %35, %41
  %43 = load i32, ptr %7, align 4, !tbaa !10
  %44 = mul nsw i32 3, %43
  %45 = load i32, ptr %9, align 4, !tbaa !10
  %46 = add nsw i32 %44, %45
  %47 = sub nsw i32 %46, 1
  %48 = sext i32 %47 to i64
  %49 = getelementptr inbounds [9 x double], ptr %3, i64 0, i64 %48
  store double %42, ptr %49, align 8, !tbaa !40
  br label %50

50:                                               ; preds = %27
  %51 = load i32, ptr %9, align 4, !tbaa !10
  %52 = add nsw i32 %51, 1
  store i32 %52, ptr %9, align 4, !tbaa !10
  br label %23, !llvm.loop !81

53:                                               ; preds = %26
  br label %54

54:                                               ; preds = %53
  %55 = load i32, ptr %7, align 4, !tbaa !10
  %56 = add nsw i32 %55, 1
  store i32 %56, ptr %7, align 4, !tbaa !10
  br label %18, !llvm.loop !82

57:                                               ; preds = %21
  %58 = call double @cvInvert(ptr noundef %5, ptr noundef %6, i32 noundef 1)
  call void @llvm.lifetime.start.p0(i64 8, ptr %10) #3
  %59 = getelementptr inbounds [9 x double], ptr %4, i64 0, i64 0
  store ptr %59, ptr %10, align 8, !tbaa !83
  call void @llvm.lifetime.start.p0(i64 4, ptr %11) #3
  store i32 0, ptr %11, align 4, !tbaa !10
  br label %60

60:                                               ; preds = %154, %57
  %61 = load i32, ptr %11, align 4, !tbaa !10
  %62 = getelementptr inbounds nuw %"class.cv::epnp", ptr %15, i32 0, i32 8
  %63 = load i32, ptr %62, align 8, !tbaa !12
  %64 = icmp slt i32 %61, %63
  br i1 %64, label %66, label %65

65:                                               ; preds = %60
  store i32 8, ptr %8, align 4
  call void @llvm.lifetime.end.p0(i64 4, ptr %11) #3
  br label %157

66:                                               ; preds = %60
  call void @llvm.lifetime.start.p0(i64 8, ptr %12) #3
  %67 = getelementptr inbounds nuw %"class.cv::epnp", ptr %15, i32 0, i32 4
  %68 = call noundef nonnull align 8 dereferenceable(8) ptr @_ZNSt6vectorIdSaIdEEixEm(ptr noundef nonnull align 8 dereferenceable(24) %67, i64 noundef 0) #3
  %69 = load i32, ptr %11, align 4, !tbaa !10
  %70 = mul nsw i32 3, %69
  %71 = sext i32 %70 to i64
  %72 = getelementptr inbounds double, ptr %68, i64 %71
  store ptr %72, ptr %12, align 8, !tbaa !83
  call void @llvm.lifetime.start.p0(i64 8, ptr %13) #3
  %73 = getelementptr inbounds nuw %"class.cv::epnp", ptr %15, i32 0, i32 6
  %74 = call noundef nonnull align 8 dereferenceable(8) ptr @_ZNSt6vectorIdSaIdEEixEm(ptr noundef nonnull align 8 dereferenceable(24) %73, i64 noundef 0) #3
  %75 = load i32, ptr %11, align 4, !tbaa !10
  %76 = mul nsw i32 4, %75
  %77 = sext i32 %76 to i64
  %78 = getelementptr inbounds double, ptr %74, i64 %77
  store ptr %78, ptr %13, align 8, !tbaa !83
  call void @llvm.lifetime.start.p0(i64 4, ptr %14) #3
  store i32 0, ptr %14, align 4, !tbaa !10
  br label %79

79:                                               ; preds = %136, %66
  %80 = load i32, ptr %14, align 4, !tbaa !10
  %81 = icmp slt i32 %80, 3
  br i1 %81, label %83, label %82

82:                                               ; preds = %79
  store i32 11, ptr %8, align 4
  call void @llvm.lifetime.end.p0(i64 4, ptr %14) #3
  br label %139

83:                                               ; preds = %79
  %84 = load ptr, ptr %10, align 8, !tbaa !83
  %85 = load i32, ptr %14, align 4, !tbaa !10
  %86 = mul nsw i32 3, %85
  %87 = sext i32 %86 to i64
  %88 = getelementptr inbounds double, ptr %84, i64 %87
  %89 = load double, ptr %88, align 8, !tbaa !40
  %90 = load ptr, ptr %12, align 8, !tbaa !83
  %91 = getelementptr inbounds double, ptr %90, i64 0
  %92 = load double, ptr %91, align 8, !tbaa !40
  %93 = getelementptr inbounds nuw %"class.cv::epnp", ptr %15, i32 0, i32 9
  %94 = getelementptr inbounds [4 x [3 x double]], ptr %93, i64 0, i64 0
  %95 = getelementptr inbounds [3 x double], ptr %94, i64 0, i64 0
  %96 = load double, ptr %95, align 8, !tbaa !40
  %97 = fsub double %92, %96
  %98 = load ptr, ptr %10, align 8, !tbaa !83
  %99 = load i32, ptr %14, align 4, !tbaa !10
  %100 = mul nsw i32 3, %99
  %101 = add nsw i32 %100, 1
  %102 = sext i32 %101 to i64
  %103 = getelementptr inbounds double, ptr %98, i64 %102
  %104 = load double, ptr %103, align 8, !tbaa !40
  %105 = load ptr, ptr %12, align 8, !tbaa !83
  %106 = getelementptr inbounds double, ptr %105, i64 1
  %107 = load double, ptr %106, align 8, !tbaa !40
  %108 = getelementptr inbounds nuw %"class.cv::epnp", ptr %15, i32 0, i32 9
  %109 = getelementptr inbounds [4 x [3 x double]], ptr %108, i64 0, i64 0
  %110 = getelementptr inbounds [3 x double], ptr %109, i64 0, i64 1
  %111 = load double, ptr %110, align 8, !tbaa !40
  %112 = fsub double %107, %111
  %113 = fmul double %104, %112
  %114 = call double @llvm.fmuladd.f64(double %89, double %97, double %113)
  %115 = load ptr, ptr %10, align 8, !tbaa !83
  %116 = load i32, ptr %14, align 4, !tbaa !10
  %117 = mul nsw i32 3, %116
  %118 = add nsw i32 %117, 2
  %119 = sext i32 %118 to i64
  %120 = getelementptr inbounds double, ptr %115, i64 %119
  %121 = load double, ptr %120, align 8, !tbaa !40
  %122 = load ptr, ptr %12, align 8, !tbaa !83
  %123 = getelementptr inbounds double, ptr %122, i64 2
  %124 = load double, ptr %123, align 8, !tbaa !40
  %125 = getelementptr inbounds nuw %"class.cv::epnp", ptr %15, i32 0, i32 9
  %126 = getelementptr inbounds [4 x [3 x double]], ptr %125, i64 0, i64 0
  %127 = getelementptr inbounds [3 x double], ptr %126, i64 0, i64 2
  %128 = load double, ptr %127, align 8, !tbaa !40
  %129 = fsub double %124, %128
  %130 = call double @llvm.fmuladd.f64(double %121, double %129, double %114)
  %131 = load ptr, ptr %13, align 8, !tbaa !83
  %132 = load i32, ptr %14, align 4, !tbaa !10
  %133 = add nsw i32 1, %132
  %134 = sext i32 %133 to i64
  %135 = getelementptr inbounds double, ptr %131, i64 %134
  store double %130, ptr %135, align 8, !tbaa !40
  br label %136

136:                                              ; preds = %83
  %137 = load i32, ptr %14, align 4, !tbaa !10
  %138 = add nsw i32 %137, 1
  store i32 %138, ptr %14, align 4, !tbaa !10
  br label %79, !llvm.loop !84

139:                                              ; preds = %82
  %140 = load ptr, ptr %13, align 8, !tbaa !83
  %141 = getelementptr inbounds double, ptr %140, i64 1
  %142 = load double, ptr %141, align 8, !tbaa !40
  %143 = fsub double 1.000000e+00, %142
  %144 = load ptr, ptr %13, align 8, !tbaa !83
  %145 = getelementptr inbounds double, ptr %144, i64 2
  %146 = load double, ptr %145, align 8, !tbaa !40
  %147 = fsub double %143, %146
  %148 = load ptr, ptr %13, align 8, !tbaa !83
  %149 = getelementptr inbounds double, ptr %148, i64 3
  %150 = load double, ptr %149, align 8, !tbaa !40
  %151 = fsub double %147, %150
  %152 = load ptr, ptr %13, align 8, !tbaa !83
  %153 = getelementptr inbounds double, ptr %152, i64 0
  store double %151, ptr %153, align 8, !tbaa !40
  call void @llvm.lifetime.end.p0(i64 8, ptr %13) #3
  call void @llvm.lifetime.end.p0(i64 8, ptr %12) #3
  br label %154

154:                                              ; preds = %139
  %155 = load i32, ptr %11, align 4, !tbaa !10
  %156 = add nsw i32 %155, 1
  store i32 %156, ptr %11, align 4, !tbaa !10
  br label %60, !llvm.loop !85

157:                                              ; preds = %65
  call void @llvm.lifetime.end.p0(i64 8, ptr %10) #3
  call void @llvm.lifetime.end.p0(i64 40, ptr %6) #3
  call void @llvm.lifetime.end.p0(i64 40, ptr %5) #3
  call void @llvm.lifetime.end.p0(i64 72, ptr %4) #3
  call void @llvm.lifetime.end.p0(i64 72, ptr %3) #3
  ret void
}