; Function Attrs: mustprogress uwtable
define hidden void @_ZN2cv4epnp31compute_barycentric_coordinatesEv(ptr noundef nonnull readonly align 8 captures(none) dereferenceable(352) %0) local_unnamed_addr #3 align 2 {
  %2 = alloca [9 x double], align 16
  %3 = alloca [9 x double], align 16
  %4 = alloca %struct.CvMat, align 8
  %5 = alloca %struct.CvMat, align 8
  call void @llvm.lifetime.start.p0(i64 72, ptr nonnull %2) #24
  call void @llvm.memset.p0.i64(ptr noundef nonnull align 16 dereferenceable(72) %2, i8 0, i64 72, i1 false)
  call void @llvm.lifetime.start.p0(i64 72, ptr nonnull %3) #24
  call void @llvm.memset.p0.i64(ptr noundef nonnull align 16 dereferenceable(72) %3, i8 0, i64 72, i1 false)
  call void @llvm.lifetime.start.p0(i64 40, ptr nonnull %4) #24
  store i32 1111638022, ptr %4, align 8, !tbaa !64, !alias.scope !84
  %6 = getelementptr inbounds nuw i8, ptr %4, i64 36
  store i32 3, ptr %6, align 4, !tbaa !69, !alias.scope !84
  %7 = getelementptr inbounds nuw i8, ptr %4, i64 32
  store i32 3, ptr %7, align 8, !tbaa !69, !alias.scope !84
  %8 = getelementptr inbounds nuw i8, ptr %4, i64 4
  store i32 24, ptr %8, align 4, !tbaa !70, !alias.scope !84
  %9 = getelementptr inbounds nuw i8, ptr %4, i64 24
  store ptr %2, ptr %9, align 8, !tbaa !69, !alias.scope !84
  %10 = getelementptr inbounds nuw i8, ptr %4, i64 8
  store ptr null, ptr %10, align 8, !tbaa !71, !alias.scope !84
  %11 = getelementptr inbounds nuw i8, ptr %4, i64 16
  store i32 0, ptr %11, align 8, !tbaa !72, !alias.scope !84
  call void @llvm.lifetime.start.p0(i64 40, ptr nonnull %5) #24
  store i32 1111638022, ptr %5, align 8, !tbaa !64, !alias.scope !87
  %12 = getelementptr inbounds nuw i8, ptr %5, i64 36
  store i32 3, ptr %12, align 4, !tbaa !69, !alias.scope !87
  %13 = getelementptr inbounds nuw i8, ptr %5, i64 32
  store i32 3, ptr %13, align 8, !tbaa !69, !alias.scope !87
  %14 = getelementptr inbounds nuw i8, ptr %5, i64 4
  store i32 24, ptr %14, align 4, !tbaa !70, !alias.scope !87
  %15 = getelementptr inbounds nuw i8, ptr %5, i64 24
  store ptr %3, ptr %15, align 8, !tbaa !69, !alias.scope !87
  %16 = getelementptr inbounds nuw i8, ptr %5, i64 8
  store ptr null, ptr %16, align 8, !tbaa !71, !alias.scope !87
  %17 = getelementptr inbounds nuw i8, ptr %5, i64 16
  store i32 0, ptr %17, align 8, !tbaa !72, !alias.scope !87
  %18 = getelementptr inbounds nuw i8, ptr %0, i64 136
  br label %.preheader

.preheader:                                       ; preds = %1, %34
  %indvars.iv38 = phi i64 [ 0, %1 ], [ %indvars.iv.next39, %34 ]
  %19 = getelementptr inbounds nuw [3 x double], ptr %18, i64 0, i64 %indvars.iv38
  %20 = load double, ptr %19, align 8, !tbaa !32
  %21 = mul nuw nsw i64 %indvars.iv38, 3
  %22 = add nsw i64 %21, -1
  br label %35

23:                                               ; preds = %34
  %24 = call double @cvInvert(ptr noundef nonnull %4, ptr noundef nonnull %5, i32 noundef 1)
  %25 = getelementptr inbounds nuw i8, ptr %0, i64 128
  %26 = load i32, ptr %25, align 8, !tbaa !34
  %27 = icmp sgt i32 %26, 0
  br i1 %27, label %.lr.ph, label %._crit_edge

.lr.ph:                                           ; preds = %23
  %28 = getelementptr inbounds nuw i8, ptr %0, i64 32
  %29 = load ptr, ptr %28, align 8, !tbaa !36
  %30 = getelementptr inbounds nuw i8, ptr %0, i64 80
  %31 = load ptr, ptr %30, align 8, !tbaa !36
  %32 = getelementptr inbounds nuw i8, ptr %0, i64 144
  %33 = getelementptr inbounds nuw i8, ptr %0, i64 152
  %wide.trip.count = zext nneg i32 %26 to i64
  br label %41

34:                                               ; preds = %35
  %indvars.iv.next39 = add nuw nsw i64 %indvars.iv38, 1
  %exitcond41.not = icmp eq i64 %indvars.iv.next39, 3
  br i1 %exitcond41.not, label %23, label %.preheader, !llvm.loop !90

35:                                               ; preds = %.preheader, %35
  %indvars.iv = phi i64 [ 1, %.preheader ], [ %indvars.iv.next, %35 ]
  %36 = getelementptr inbounds nuw [4 x [3 x double]], ptr %18, i64 0, i64 %indvars.iv, i64 %indvars.iv38
  %37 = load double, ptr %36, align 8, !tbaa !32
  %38 = fsub double %37, %20
  %39 = add nsw i64 %22, %indvars.iv
  %40 = getelementptr inbounds [9 x double], ptr %2, i64 0, i64 %39
  store double %38, ptr %40, align 8, !tbaa !32
  %indvars.iv.next = add nuw nsw i64 %indvars.iv, 1
  %exitcond.not = icmp eq i64 %indvars.iv.next, 4
  br i1 %exitcond.not, label %34, label %35, !llvm.loop !91

._crit_edge:                                      ; preds = %46, %23
  call void @llvm.lifetime.end.p0(i64 40, ptr nonnull %5) #24
  call void @llvm.lifetime.end.p0(i64 40, ptr nonnull %4) #24
  call void @llvm.lifetime.end.p0(i64 72, ptr nonnull %3) #24
  call void @llvm.lifetime.end.p0(i64 72, ptr nonnull %2) #24
  ret void

41:                                               ; preds = %.lr.ph, %46
  %indvars.iv46 = phi i64 [ 0, %.lr.ph ], [ %indvars.iv.next47, %46 ]
  %.idx = mul nuw nsw i64 %indvars.iv46, 24
  %42 = getelementptr inbounds nuw i8, ptr %29, i64 %.idx
  %.idx50 = shl nsw i64 %indvars.iv46, 5
  %43 = getelementptr inbounds nuw i8, ptr %31, i64 %.idx50
  %44 = getelementptr inbounds nuw i8, ptr %42, i64 8
  %45 = getelementptr inbounds nuw i8, ptr %42, i64 16
  br label %56

46:                                               ; preds = %56
  %47 = getelementptr inbounds nuw i8, ptr %43, i64 8
  %48 = load double, ptr %47, align 8, !tbaa !32
  %49 = fsub double 1.000000e+00, %48
  %50 = getelementptr inbounds nuw i8, ptr %43, i64 16
  %51 = load double, ptr %50, align 8, !tbaa !32
  %52 = fsub double %49, %51
  %53 = getelementptr inbounds nuw i8, ptr %43, i64 24
  %54 = load double, ptr %53, align 8, !tbaa !32
  %55 = fsub double %52, %54
  store double %55, ptr %43, align 8, !tbaa !32
  %indvars.iv.next47 = add nuw nsw i64 %indvars.iv46, 1
  %exitcond49.not = icmp eq i64 %indvars.iv.next47, %wide.trip.count
  br i1 %exitcond49.not, label %._crit_edge, label %41, !llvm.loop !92

56:                                               ; preds = %41, %56
  %indvars.iv42 = phi i64 [ 0, %41 ], [ %indvars.iv.next43, %56 ]
  %.idx51 = mul nuw nsw i64 %indvars.iv42, 24
  %57 = getelementptr inbounds nuw i8, ptr %3, i64 %.idx51
  %58 = load double, ptr %57, align 8, !tbaa !32
  %59 = load double, ptr %42, align 8, !tbaa !32
  %60 = load double, ptr %18, align 8, !tbaa !32
  %61 = fsub double %59, %60
  %62 = getelementptr inbounds nuw i8, ptr %57, i64 8
  %63 = load double, ptr %62, align 8, !tbaa !32
  %64 = load double, ptr %44, align 8, !tbaa !32
  %65 = load double, ptr %32, align 8, !tbaa !32
  %66 = fsub double %64, %65
  %67 = fmul double %63, %66
  %68 = call double @llvm.fmuladd.f64(double %58, double %61, double %67)
  %69 = getelementptr inbounds nuw i8, ptr %57, i64 16
  %70 = load double, ptr %69, align 8, !tbaa !32
  %71 = load double, ptr %45, align 8, !tbaa !32
  %72 = load double, ptr %33, align 8, !tbaa !32
  %73 = fsub double %71, %72
  %74 = call double @llvm.fmuladd.f64(double %70, double %73, double %68)
  %indvars.iv.next43 = add nuw nsw i64 %indvars.iv42, 1
  %75 = getelementptr inbounds nuw double, ptr %43, i64 %indvars.iv.next43
  store double %74, ptr %75, align 8, !tbaa !32
  %exitcond45.not = icmp eq i64 %indvars.iv.next43, 3
  br i1 %exitcond45.not, label %46, label %56, !llvm.loop !93
}